; Function Attrs: nounwind uwtable
define hidden range(i32 -2, 1) i32 @ma_decoder_uninit(ptr noundef %0) local_unnamed_addr #7 {
  %2 = icmp eq ptr %0, null
  br i1 %2, label %ma_free.exit, label %3

3:                                                ; preds = %1
  %4 = getelementptr inbounds nuw i8, ptr %0, i64 72
  %5 = load ptr, ptr %4, align 8
  %.not = icmp eq ptr %5, null
  br i1 %.not, label %16, label %6

6:                                                ; preds = %3
  %7 = getelementptr inbounds nuw i8, ptr %0, i64 80
  %8 = load ptr, ptr %7, align 8
  %.not23 = icmp eq ptr %8, null
  br i1 %.not23, label %16, label %9

9:                                                ; preds = %6
  %10 = getelementptr inbounds nuw i8, ptr %8, i64 32
  %11 = load ptr, ptr %10, align 8
  %.not24 = icmp eq ptr %11, null
  br i1 %.not24, label %16, label %12

12:                                               ; preds = %9
  %13 = getelementptr inbounds nuw i8, ptr %0, i64 88
  %14 = load ptr, ptr %13, align 8
  %15 = getelementptr inbounds nuw i8, ptr %0, i64 496
  tail call void %11(ptr noundef %14, ptr noundef nonnull %5, ptr noundef nonnull %15) #72
  br label %16

16:                                               ; preds = %6, %9, %12, %3
  %17 = getelementptr inbounds nuw i8, ptr %0, i64 96
  %18 = load ptr, ptr %17, align 8
  %19 = icmp eq ptr %18, @ma_decoder__on_read_vfs
  br i1 %19, label %20, label %36

20:                                               ; preds = %16
  %21 = getelementptr inbounds nuw i8, ptr %0, i64 528
  %22 = load ptr, ptr %21, align 8
  %23 = getelementptr inbounds nuw i8, ptr %0, i64 536
  %24 = load ptr, ptr %23, align 8
  %.not.i = icmp eq ptr %22, null
  %25 = icmp eq ptr %24, null
  br i1 %.not.i, label %33, label %26

26:                                               ; preds = %20
  br i1 %25, label %ma_vfs_or_default_close.exit, label %27

27:                                               ; preds = %26
  %28 = getelementptr inbounds nuw i8, ptr %22, i64 16
  %29 = load ptr, ptr %28, align 8
  %30 = icmp eq ptr %29, null
  br i1 %30, label %ma_vfs_or_default_close.exit, label %31

31:                                               ; preds = %27
  %32 = tail call i32 %29(ptr noundef nonnull %22, ptr noundef nonnull %24) #72
  br label %ma_vfs_or_default_close.exit

33:                                               ; preds = %20
  br i1 %25, label %ma_vfs_or_default_close.exit, label %34

34:                                               ; preds = %33
  %35 = tail call i32 @fclose(ptr noundef nonnull %24)
  br label %ma_vfs_or_default_close.exit

ma_vfs_or_default_close.exit:                     ; preds = %26, %27, %31, %33, %34
  store ptr null, ptr %23, align 8
  br label %36

36:                                               ; preds = %ma_vfs_or_default_close.exit, %16
  %37 = getelementptr inbounds nuw i8, ptr %0, i64 496
  %38 = getelementptr inbounds nuw i8, ptr %0, i64 451
  %39 = load i8, ptr %38, align 1
  %.not.i26 = icmp eq i8 %39, 0
  br i1 %.not.i26, label %ma_resampler_uninit.exit.i, label %40

40:                                               ; preds = %36
  %41 = getelementptr inbounds nuw i8, ptr %0, i64 256
  %42 = getelementptr inbounds nuw i8, ptr %0, i64 264
  %43 = load ptr, ptr %42, align 8
  %44 = icmp eq ptr %43, null
  br i1 %44, label %ma_resampler_uninit.exit.i, label %45

45:                                               ; preds = %40
  %46 = getelementptr inbounds nuw i8, ptr %43, i64 16
  %47 = load ptr, ptr %46, align 8
  %48 = icmp eq ptr %47, null
  br i1 %48, label %ma_resampler_uninit.exit.i, label %49

49:                                               ; preds = %45
  %50 = getelementptr inbounds nuw i8, ptr %0, i64 272
  %51 = load ptr, ptr %50, align 8
  %52 = load ptr, ptr %41, align 8
  tail call void %47(ptr noundef %51, ptr noundef %52, ptr noundef nonnull %37) #72
  %53 = getelementptr inbounds nuw i8, ptr %0, i64 440
  %54 = load i32, ptr %53, align 8
  %.not.i.i = icmp eq i32 %54, 0
  br i1 %.not.i.i, label %ma_resampler_uninit.exit.i, label %55

55:                                               ; preds = %49
  %56 = getelementptr inbounds nuw i8, ptr %0, i64 432
  %57 = load ptr, ptr %56, align 8
  %58 = icmp eq ptr %57, null
  br i1 %58, label %ma_resampler_uninit.exit.i, label %59

59:                                               ; preds = %55
  %60 = getelementptr inbounds nuw i8, ptr %0, i64 520
  %61 = load ptr, ptr %60, align 8
  %.not9.i.i.i = icmp eq ptr %61, null
  br i1 %.not9.i.i.i, label %ma_resampler_uninit.exit.i, label %62

62:                                               ; preds = %59
  %63 = load ptr, ptr %37, align 8
  tail call void %61(ptr noundef nonnull %57, ptr noundef %63) #72
  br label %ma_resampler_uninit.exit.i

ma_resampler_uninit.exit.i:                       ; preds = %62, %59, %55, %49, %45, %40, %36
  %64 = getelementptr inbounds nuw i8, ptr %0, i64 248
  %65 = load i32, ptr %64, align 8
  %.not.i10.i = icmp eq i32 %65, 0
  br i1 %.not.i10.i, label %ma_channel_converter_uninit.exit.i, label %66

66:                                               ; preds = %ma_resampler_uninit.exit.i
  %67 = getelementptr inbounds nuw i8, ptr %0, i64 240
  %68 = load ptr, ptr %67, align 8
  %69 = icmp eq ptr %68, null
  br i1 %69, label %ma_channel_converter_uninit.exit.i, label %70

70:                                               ; preds = %66
  %71 = getelementptr inbounds nuw i8, ptr %0, i64 520
  %72 = load ptr, ptr %71, align 8
  %.not9.i.i12.i = icmp eq ptr %72, null
  br i1 %.not9.i.i12.i, label %ma_channel_converter_uninit.exit.i, label %73

73:                                               ; preds = %70
  %74 = load ptr, ptr %37, align 8
  tail call void %72(ptr noundef nonnull %68, ptr noundef %74) #72
  br label %ma_channel_converter_uninit.exit.i

ma_channel_converter_uninit.exit.i:               ; preds = %73, %70, %66, %ma_resampler_uninit.exit.i
  %75 = getelementptr inbounds nuw i8, ptr %0, i64 453
  %76 = load i8, ptr %75, align 1
  %.not9.i = icmp eq i8 %76, 0
  br i1 %.not9.i, label %ma_data_converter_uninit.exit, label %77

77:                                               ; preds = %ma_channel_converter_uninit.exit.i
  %78 = getelementptr inbounds nuw i8, ptr %0, i64 456
  %79 = load ptr, ptr %78, align 8
  %80 = icmp eq ptr %79, null
  br i1 %80, label %ma_data_converter_uninit.exit, label %81

81:                                               ; preds = %77
  %82 = getelementptr inbounds nuw i8, ptr %0, i64 520
  %83 = load ptr, ptr %82, align 8
  %.not9.i.i = icmp eq ptr %83, null
  br i1 %.not9.i.i, label %ma_data_converter_uninit.exit, label %84

84:                                               ; preds = %81
  %85 = load ptr, ptr %37, align 8
  tail call void %83(ptr noundef nonnull %79, ptr noundef %85) #72
  br label %ma_data_converter_uninit.exit

ma_data_converter_uninit.exit:                    ; preds = %ma_channel_converter_uninit.exit.i, %77, %81, %84
  %86 = getelementptr inbounds nuw i8, ptr %0, i64 464
  %87 = load ptr, ptr %86, align 8
  %.not25 = icmp eq ptr %87, null
  br i1 %.not25, label %ma_free.exit, label %88

88:                                               ; preds = %ma_data_converter_uninit.exit
  %89 = getelementptr inbounds nuw i8, ptr %0, i64 520
  %90 = load ptr, ptr %89, align 8
  %.not9.i28 = icmp eq ptr %90, null
  br i1 %.not9.i28, label %ma_free.exit, label %91

91:                                               ; preds = %88
  %92 = load ptr, ptr %37, align 8
  tail call void %90(ptr noundef nonnull %87, ptr noundef %92) #72
  br label %ma_free.exit

ma_free.exit:                                     ; preds = %91, %88, %ma_data_converter_uninit.exit, %1
  %.0 = phi i32 [ -2, %1 ], [ 0, %ma_data_converter_uninit.exit ], [ 0, %88 ], [ 0, %91 ]
  ret i32 %.0
}